target datalayout = "e-m:e-p270:32:32-p271:32:32-p272:64:64-i64:64-i128:128-f80:128-n8:16:32:64-S128"
target triple = "x86_64-pc-linux-gnu"

%struct.nghttp2_hd_entry = type { %struct.nghttp2_hd_nv, %struct.nghttp2_nv, ptr, i32, i32 }
%struct.nghttp2_hd_nv = type { ptr, ptr, i32, i8 }
%struct.nghttp2_nv = type { ptr, ptr, i64, i64, i8 }
%struct.nghttp2_rcbuf = type { ptr, ptr, ptr, i64, i32 }
%struct.nghttp2_hd_context = type { %struct.nghttp2_hd_ringbuf, ptr, i64, i64, i32, i8 }
%struct.nghttp2_hd_ringbuf = type { ptr, i64, i64, i64 }
%struct.nghttp2_hd_inflater = type { %struct.nghttp2_hd_context, %struct.nghttp2_hd_huff_decode_context, %struct.nghttp2_buf, %struct.nghttp2_buf, ptr, ptr, ptr, ptr, i64, i64, i64, i64, i64, i32, i32, i8, i8, i8 }
%struct.nghttp2_hd_huff_decode_context = type { i16 }
%struct.nghttp2_buf = type { ptr, ptr, ptr, ptr, ptr }
%struct.nghttp2_hd_static_entry = type { %struct.nghttp2_rcbuf, %struct.nghttp2_rcbuf, %struct.nghttp2_nv, i32, i32 }

@.str = private unnamed_addr constant [32 x i8] c"INDEX_RANGE_VALID(context, idx)\00", align 1
@.str.1 = private unnamed_addr constant [110 x i8] c"generated/home/dtcxzyw/WorkSpace/Projects/compilers/llvm-opt-benchmark/bench/nghttp2/nghttp2/lib/nghttp2_hd.c\00", align 1
@__PRETTY_FUNCTION__.nghttp2_hd_table_get = private unnamed_addr constant [65 x i8] c"nghttp2_hd_nv nghttp2_hd_table_get(nghttp2_hd_context *, size_t)\00", align 1
@.str.4 = private unnamed_addr constant [19 x i8] c"idx < ringbuf->len\00", align 1
@__PRETTY_FUNCTION__.hd_ringbuf_get = private unnamed_addr constant [63 x i8] c"nghttp2_hd_entry *hd_ringbuf_get(nghttp2_hd_ringbuf *, size_t)\00", align 1

; Function Attrs: nounwind uwtable
define internal ptr @hd_ringbuf_get(ptr noundef %0, i64 noundef %1) #0 {
  %3 = alloca ptr, align 8
  %4 = alloca i64, align 8
  store ptr %0, ptr %3, align 8, !tbaa !8
  store i64 %1, ptr %4, align 8, !tbaa !37
  %5 = load i64, ptr %4, align 8, !tbaa !37
  %6 = load ptr, ptr %3, align 8, !tbaa !8
  %7 = getelementptr inbounds nuw %struct.nghttp2_hd_ringbuf, ptr %6, i32 0, i32 3
  %8 = load i64, ptr %7, align 8, !tbaa !80
  %9 = icmp ult i64 %5, %8
  br i1 %9, label %10, label %11

10:                                               ; preds = %2
  br label %12

11:                                               ; preds = %2
  call void @__assert_fail(ptr noundef @.str.4, ptr noundef @.str.1, i32 noundef 622, ptr noundef @__PRETTY_FUNCTION__.hd_ringbuf_get) #9
  unreachable

12:                                               ; preds = %10
  %13 = load ptr, ptr %3, align 8, !tbaa !8
  %14 = getelementptr inbounds nuw %struct.nghttp2_hd_ringbuf, ptr %13, i32 0, i32 0
  %15 = load ptr, ptr %14, align 8, !tbaa !81
  %16 = load ptr, ptr %3, align 8, !tbaa !8
  %17 = getelementptr inbounds nuw %struct.nghttp2_hd_ringbuf, ptr %16, i32 0, i32 2
  %18 = load i64, ptr %17, align 8, !tbaa !82
  %19 = load i64, ptr %4, align 8, !tbaa !37
  %20 = add i64 %18, %19
  %21 = load ptr, ptr %3, align 8, !tbaa !8
  %22 = getelementptr inbounds nuw %struct.nghttp2_hd_ringbuf, ptr %21, i32 0, i32 1
  %23 = load i64, ptr %22, align 8, !tbaa !83
  %24 = and i64 %20, %23
  %25 = getelementptr inbounds nuw ptr, ptr %15, i64 %24
  %26 = load ptr, ptr %25, align 8, !tbaa !3
  ret ptr %26
}

; Function Attrs: nounwind uwtable
define internal void @emit_header(ptr noundef %0, ptr noundef %1) #0 {
  %3 = alloca ptr, align 8
  %4 = alloca ptr, align 8
  store ptr %0, ptr %3, align 8, !tbaa !8
  store ptr %1, ptr %4, align 8, !tbaa !8
  br label %5

5:                                                ; preds = %2
  br label %6

6:                                                ; preds = %5
  %7 = load ptr, ptr %3, align 8, !tbaa !8
  %8 = load ptr, ptr %4, align 8, !tbaa !8
  call void @llvm.memcpy.p0.p0.i64(ptr align 8 %7, ptr align 8 %8, i64 24, i1 false), !tbaa.struct !9
  ret void
}

; Function Attrs: nounwind uwtable
define hidden void @nghttp2_hd_table_get(ptr dead_on_unwind noalias writable sret(%struct.nghttp2_hd_nv) align 8 %0, ptr noundef %1, i64 noundef %2) #0 {
  %4 = alloca ptr, align 8
  %5 = alloca i64, align 8
  %6 = alloca ptr, align 8
  store ptr %1, ptr %4, align 8, !tbaa !8
  store i64 %2, ptr %5, align 8, !tbaa !37
  %7 = load i64, ptr %5, align 8, !tbaa !37
  %8 = load ptr, ptr %4, align 8, !tbaa !8
  %9 = getelementptr inbounds nuw %struct.nghttp2_hd_context, ptr %8, i32 0, i32 0
  %10 = getelementptr inbounds nuw %struct.nghttp2_hd_ringbuf, ptr %9, i32 0, i32 3
  %11 = load i64, ptr %10, align 8, !tbaa !73
  %12 = add i64 %11, 61
  %13 = icmp ult i64 %7, %12
  br i1 %13, label %14, label %15

14:                                               ; preds = %3
  br label %16

15:                                               ; preds = %3
  call void @__assert_fail(ptr noundef @.str, ptr noundef @.str.1, i32 noundef 1314, ptr noundef @__PRETTY_FUNCTION__.nghttp2_hd_table_get) #9
  unreachable

16:                                               ; preds = %14
  %17 = load i64, ptr %5, align 8, !tbaa !37
  %18 = icmp uge i64 %17, 61
  br i1 %18, label %19, label %26

19:                                               ; preds = %16
  %20 = load ptr, ptr %4, align 8, !tbaa !8
  %21 = getelementptr inbounds nuw %struct.nghttp2_hd_context, ptr %20, i32 0, i32 0
  %22 = load i64, ptr %5, align 8, !tbaa !37
  %23 = sub i64 %22, 61
  %24 = call ptr @hd_ringbuf_get(ptr noundef %21, i64 noundef %23)
  %25 = getelementptr inbounds nuw %struct.nghttp2_hd_entry, ptr %24, i32 0, i32 0
  call void @llvm.memcpy.p0.p0.i64(ptr align 8 %0, ptr align 8 %25, i64 24, i1 false), !tbaa.struct !9
  br label %41

26:                                               ; preds = %16
  call void @llvm.lifetime.start.p0(i64 8, ptr %6) #8
  %27 = load i64, ptr %5, align 8, !tbaa !37
  %28 = getelementptr inbounds nuw [61 x %struct.nghttp2_hd_static_entry], ptr @static_table, i64 0, i64 %27
  store ptr %28, ptr %6, align 8, !tbaa !8
  %29 = getelementptr inbounds nuw %struct.nghttp2_hd_nv, ptr %0, i32 0, i32 0
  %30 = load ptr, ptr %6, align 8, !tbaa !8
  %31 = getelementptr inbounds nuw %struct.nghttp2_hd_static_entry, ptr %30, i32 0, i32 0
  store ptr %31, ptr %29, align 8, !tbaa !15
  %32 = getelementptr inbounds nuw %struct.nghttp2_hd_nv, ptr %0, i32 0, i32 1
  %33 = load ptr, ptr %6, align 8, !tbaa !8
  %34 = getelementptr inbounds nuw %struct.nghttp2_hd_static_entry, ptr %33, i32 0, i32 1
  store ptr %34, ptr %32, align 8, !tbaa !26
  %35 = getelementptr inbounds nuw %struct.nghttp2_hd_nv, ptr %0, i32 0, i32 2
  %36 = load ptr, ptr %6, align 8, !tbaa !8
  %37 = getelementptr inbounds nuw %struct.nghttp2_hd_static_entry, ptr %36, i32 0, i32 3
  %38 = load i32, ptr %37, align 8, !tbaa !77
  store i32 %38, ptr %35, align 8, !tbaa !79
  %39 = getelementptr inbounds nuw %struct.nghttp2_hd_nv, ptr %0, i32 0, i32 3
  store i8 0, ptr %39, align 4, !tbaa !29
  %40 = getelementptr i8, ptr %0, i64 21
  call void @llvm.memset.p0.i64(ptr align 1 %40, i8 0, i64 3, i1 false)
  call void @llvm.lifetime.end.p0(i64 8, ptr %6) #8
  br label %41

41:                                               ; preds = %26, %19
  ret void
}

; Function Attrs: nounwind uwtable
define internal i32 @hd_inflate_commit_indname(ptr noundef %0, ptr noundef %1) #0 {
  %3 = alloca i32, align 4
  %4 = alloca ptr, align 8
  %5 = alloca ptr, align 8
  %6 = alloca %struct.nghttp2_hd_nv, align 8
  %7 = alloca i32, align 4
  %8 = alloca %struct.nghttp2_hd_nv, align 8
  %9 = alloca i32, align 4
  store ptr %0, ptr %4, align 8, !tbaa !53
  store ptr %1, ptr %5, align 8, !tbaa !8
  call void @llvm.lifetime.start.p0(i64 24, ptr %6) #8
  call void @llvm.lifetime.start.p0(i64 4, ptr %7) #8
  call void @llvm.lifetime.start.p0(i64 24, ptr %8) #8
  %10 = load ptr, ptr %4, align 8, !tbaa !53
  %11 = getelementptr inbounds nuw %struct.nghttp2_hd_inflater, ptr %10, i32 0, i32 0
  %12 = load ptr, ptr %4, align 8, !tbaa !53
  %13 = getelementptr inbounds nuw %struct.nghttp2_hd_inflater, ptr %12, i32 0, i32 9
  %14 = load i64, ptr %13, align 8, !tbaa !68
  call void @nghttp2_hd_table_get(ptr dead_on_unwind writable sret(%struct.nghttp2_hd_nv) align 8 %8, ptr noundef %11, i64 noundef %14)
  call void @llvm.memcpy.p0.p0.i64(ptr align 8 %6, ptr align 8 %8, i64 24, i1 false), !tbaa.struct !9
  call void @llvm.lifetime.end.p0(i64 24, ptr %8) #8
  %15 = load ptr, ptr %4, align 8, !tbaa !53
  %16 = getelementptr inbounds nuw %struct.nghttp2_hd_inflater, ptr %15, i32 0, i32 17
  %17 = load i8, ptr %16, align 2, !tbaa !72
  %18 = icmp ne i8 %17, 0
  br i1 %18, label %19, label %21

19:                                               ; preds = %2
  %20 = getelementptr inbounds nuw %struct.nghttp2_hd_nv, ptr %6, i32 0, i32 3
  store i8 1, ptr %20, align 4, !tbaa !29
  br label %23

21:                                               ; preds = %2
  %22 = getelementptr inbounds nuw %struct.nghttp2_hd_nv, ptr %6, i32 0, i32 3
  store i8 0, ptr %22, align 4, !tbaa !29
  br label %23

23:                                               ; preds = %21, %19
  %24 = getelementptr inbounds nuw %struct.nghttp2_hd_nv, ptr %6, i32 0, i32 0
  %25 = load ptr, ptr %24, align 8, !tbaa !15
  call void @nghttp2_rcbuf_incref(ptr noundef %25)
  %26 = load ptr, ptr %4, align 8, !tbaa !53
  %27 = getelementptr inbounds nuw %struct.nghttp2_hd_inflater, ptr %26, i32 0, i32 5
  %28 = load ptr, ptr %27, align 8, !tbaa !66
  %29 = getelementptr inbounds nuw %struct.nghttp2_hd_nv, ptr %6, i32 0, i32 1
  store ptr %28, ptr %29, align 8, !tbaa !26
  %30 = load ptr, ptr %4, align 8, !tbaa !53
  %31 = getelementptr inbounds nuw %struct.nghttp2_hd_inflater, ptr %30, i32 0, i32 16
  %32 = load i8, ptr %31, align 1, !tbaa !71
  %33 = icmp ne i8 %32, 0
  br i1 %33, label %34, label %44

34:                                               ; preds = %23
  %35 = load ptr, ptr %4, align 8, !tbaa !53
  %36 = getelementptr inbounds nuw %struct.nghttp2_hd_inflater, ptr %35, i32 0, i32 0
  %37 = call i32 @add_hd_table_incremental(ptr noundef %36, ptr noundef %6, ptr noundef null, i32 noundef 0)
  store i32 %37, ptr %7, align 4, !tbaa !12
  %38 = load i32, ptr %7, align 4, !tbaa !12
  %39 = icmp ne i32 %38, 0
  br i1 %39, label %40, label %43

40:                                               ; preds = %34
  %41 = getelementptr inbounds nuw %struct.nghttp2_hd_nv, ptr %6, i32 0, i32 0
  %42 = load ptr, ptr %41, align 8, !tbaa !15
  call void @nghttp2_rcbuf_decref(ptr noundef %42)
  store i32 -901, ptr %3, align 4
  store i32 1, ptr %9, align 4
  br label %56

43:                                               ; preds = %34
  br label %44

44:                                               ; preds = %43, %23
  %45 = load ptr, ptr %5, align 8, !tbaa !8
  call void @emit_header(ptr noundef %45, ptr noundef %6)
  %46 = getelementptr inbounds nuw %struct.nghttp2_hd_nv, ptr %6, i32 0, i32 0
  %47 = load ptr, ptr %46, align 8, !tbaa !15
  %48 = load ptr, ptr %4, align 8, !tbaa !53
  %49 = getelementptr inbounds nuw %struct.nghttp2_hd_inflater, ptr %48, i32 0, i32 6
  store ptr %47, ptr %49, align 8, !tbaa !61
  %50 = getelementptr inbounds nuw %struct.nghttp2_hd_nv, ptr %6, i32 0, i32 1
  %51 = load ptr, ptr %50, align 8, !tbaa !26
  %52 = load ptr, ptr %4, align 8, !tbaa !53
  %53 = getelementptr inbounds nuw %struct.nghttp2_hd_inflater, ptr %52, i32 0, i32 7
  store ptr %51, ptr %53, align 8, !tbaa !62
  %54 = load ptr, ptr %4, align 8, !tbaa !53
  %55 = getelementptr inbounds nuw %struct.nghttp2_hd_inflater, ptr %54, i32 0, i32 5
  store ptr null, ptr %55, align 8, !tbaa !66
  store i32 0, ptr %3, align 4
  store i32 1, ptr %9, align 4
  br label %56

56:                                               ; preds = %44, %40
  call void @llvm.lifetime.end.p0(i64 4, ptr %7) #8
  call void @llvm.lifetime.end.p0(i64 24, ptr %6) #8
  %57 = load i32, ptr %3, align 4
  ret i32 %57
}