; Function Attrs: nounwind uwtable
define internal fastcc range(i32 -901, 1) i32 @hd_inflate_commit_indname(ptr noundef captures(none) %0, ptr noundef writeonly captures(none) %1) unnamed_addr #0 {
  %3 = alloca %struct.nghttp2_hd_nv, align 8
  call void @llvm.lifetime.start.p0(i64 24, ptr nonnull %3) #12
  %4 = getelementptr inbounds nuw i8, ptr %0, i64 192
  %5 = load i64, ptr %4, align 8, !tbaa !107
  %6 = getelementptr inbounds nuw i8, ptr %0, i64 24
  %7 = load i64, ptr %6, align 8, !tbaa !71, !noalias !117
  %8 = add i64 %7, 61
  %9 = icmp ult i64 %5, %8
  br i1 %9, label %11, label %10

10:                                               ; preds = %2
  tail call void @__assert_fail(ptr noundef nonnull @.str, ptr noundef nonnull @.str.1, i32 noundef 1314, ptr noundef nonnull @__PRETTY_FUNCTION__.nghttp2_hd_table_get) #13, !noalias !117
  unreachable

11:                                               ; preds = %2
  %12 = icmp ugt i64 %5, 60
  br i1 %12, label %13, label %26

13:                                               ; preds = %11
  %14 = add i64 %5, -61
  %15 = icmp ult i64 %14, %7
  br i1 %15, label %hd_ringbuf_get.exit.i, label %16

16:                                               ; preds = %13
  tail call void @__assert_fail(ptr noundef nonnull @.str.4, ptr noundef nonnull @.str.1, i32 noundef 622, ptr noundef nonnull @__PRETTY_FUNCTION__.hd_ringbuf_get) #13, !noalias !117
  unreachable

hd_ringbuf_get.exit.i:                            ; preds = %13
  %17 = load ptr, ptr %0, align 8, !tbaa !40, !noalias !117
  %18 = getelementptr inbounds nuw i8, ptr %0, i64 16
  %19 = load i64, ptr %18, align 8, !tbaa !63, !noalias !117
  %20 = add i64 %19, %14
  %21 = getelementptr inbounds nuw i8, ptr %0, i64 8
  %22 = load i64, ptr %21, align 8, !tbaa !41, !noalias !117
  %23 = and i64 %20, %22
  %24 = getelementptr inbounds nuw ptr, ptr %17, i64 %23
  %25 = load ptr, ptr %24, align 8, !tbaa !64, !noalias !117
  %.sroa.0.0.copyload13 = load ptr, ptr %25, align 8, !tbaa !4
  %.sroa.6.0..sroa_idx16 = getelementptr inbounds nuw i8, ptr %25, i64 16
  %.sroa.7.0..sroa_idx18 = getelementptr inbounds nuw i8, ptr %25, i64 20
  %.sroa.7.0.copyload19 = load i32, ptr %.sroa.7.0..sroa_idx18, align 4
  br label %nghttp2_hd_table_get.exit

26:                                               ; preds = %11
  %27 = getelementptr inbounds nuw [61 x %struct.nghttp2_hd_static_entry], ptr @static_table, i64 0, i64 %5
  %28 = getelementptr inbounds nuw i8, ptr %27, i64 120
  br label %nghttp2_hd_table_get.exit

nghttp2_hd_table_get.exit:                        ; preds = %hd_ringbuf_get.exit.i, %26
  %.sroa.7.0 = phi i32 [ %.sroa.7.0.copyload19, %hd_ringbuf_get.exit.i ], [ 0, %26 ]
  %.sroa.6.0.in = phi ptr [ %.sroa.6.0..sroa_idx16, %hd_ringbuf_get.exit.i ], [ %28, %26 ]
  %.sroa.0.0 = phi ptr [ %.sroa.0.0.copyload13, %hd_ringbuf_get.exit.i ], [ %27, %26 ]
  %.sroa.6.0 = load i32, ptr %.sroa.6.0.in, align 8, !tbaa !9
  store ptr %.sroa.0.0, ptr %3, align 8, !tbaa !4
  %.sroa.5.0..sroa_idx = getelementptr inbounds nuw i8, ptr %3, i64 8
  %.sroa.6.0..sroa_idx = getelementptr inbounds nuw i8, ptr %3, i64 16
  store i32 %.sroa.6.0, ptr %.sroa.6.0..sroa_idx, align 8, !tbaa !9
  %.sroa.7.0..sroa_idx = getelementptr inbounds nuw i8, ptr %3, i64 20
  store i32 %.sroa.7.0, ptr %.sroa.7.0..sroa_idx, align 4
  %29 = getelementptr inbounds nuw i8, ptr %0, i64 234
  %30 = load i8, ptr %29, align 2, !tbaa !61
  %.not = icmp ne i8 %30, 0
  %. = zext i1 %.not to i8
  store i8 %., ptr %.sroa.7.0..sroa_idx, align 4, !tbaa !27
  tail call void @nghttp2_rcbuf_incref(ptr noundef %.sroa.0.0) #12
  %31 = getelementptr inbounds nuw i8, ptr %0, i64 160
  %32 = load ptr, ptr %31, align 8, !tbaa !69
  store ptr %32, ptr %.sroa.5.0..sroa_idx, align 8, !tbaa !24
  %33 = getelementptr inbounds nuw i8, ptr %0, i64 233
  %34 = load i8, ptr %33, align 1, !tbaa !60
  %.not11 = icmp eq i8 %34, 0
  br i1 %.not11, label %38, label %35

35:                                               ; preds = %nghttp2_hd_table_get.exit
  %36 = call fastcc i32 @add_hd_table_incremental(ptr noundef nonnull %0, ptr noundef %3, ptr noundef null, i32 noundef 0)
  %.not12 = icmp eq i32 %36, 0
  br i1 %.not12, label %38, label %37

37:                                               ; preds = %35
  tail call void @nghttp2_rcbuf_decref(ptr noundef %.sroa.0.0) #12
  br label %41

38:                                               ; preds = %35, %nghttp2_hd_table_get.exit
  call void @llvm.memcpy.p0.p0.i64(ptr noundef nonnull align 8 dereferenceable(24) %1, ptr noundef nonnull readonly align 8 dereferenceable(24) %3, i64 24, i1 false), !tbaa.struct !3
  %39 = getelementptr inbounds nuw i8, ptr %0, i64 168
  store ptr %.sroa.0.0, ptr %39, align 8, !tbaa !68
  %40 = getelementptr inbounds nuw i8, ptr %0, i64 176
  store ptr %32, ptr %40, align 8, !tbaa !67
  store ptr null, ptr %31, align 8, !tbaa !69
  br label %41

41:                                               ; preds = %38, %37
  %.0 = phi i32 [ -901, %37 ], [ 0, %38 ]
  call void @llvm.lifetime.end.p0(i64 24, ptr nonnull %3) #12
  ret i32 %.0
}